Certificate:
    Data:
        Version: 3 (0x2)
        Serial Number: 2 (0x2)
    Signature Algorithm: sha256WithRSAEncryption
        Issuer: CN=10.1.2.173@1463670202
        Validity
            Not Before: May 19 15:03:23 2016 GMT
            Not After : May 17 15:03:23 2026 GMT
        Subject: CN=kubecfg
        Subject Public Key Info:
            Public Key Algorithm: rsaEncryption
                Public-Key: (2048 bit)
                Modulus:
                    00:c7:cf:28:da:c9:97:4e:7e:38:c1:26:4e:12:25:
                    ab:f2:cb:6e:68:76:fd:6b:c5:d9:e5:c8:96:d5:1e:
                    e5:5d:e3:6b:dd:22:ba:d4:e5:c4:c4:11:09:e1:8b:
                    09:d5:8b:ae:df:e4:a8:70:58:22:e4:c3:92:3a:bc:
                    f5:cb:a3:82:8b:d2:17:00:6c:6f:6b:2c:6b:fa:35:
                    80:dc:82:7d:b2:64:84:43:ba:22:36:1b:8a:93:e0:
                    64:a2:08:60:68:46:2a:e9:7a:3e:38:aa:ed:6e:40:
                    25:98:27:8a:ea:84:73:90:90:de:08:99:a1:5f:25:
                    16:7c:bb:b4:3f:ab:49:a3:23:83:2f:d1:9f:93:e5:
                    20:a4:95:6c:95:e6:c4:98:4e:01:a8:63:96:5b:9d:
                    ce:d1:19:34:4f:7a:ce:64:46:ad:8f:38:71:25:9e:
                    ea:dd:a0:17:d8:5b:c1:f2:59:4e:7f:02:f8:8b:83:
                    ad:86:70:fb:ed:3d:b3:1d:3a:8d:71:56:10:24:34:
                    3d:fe:7c:e4:73:5c:bf:7e:6a:a6:58:95:74:fc:33:
                    00:1a:02:87:5f:07:a0:31:b0:38:9d:80:66:58:c1:
                    11:c2:c9:fc:fc:f4:3f:1c:1e:7f:c5:c4:2d:aa:be:
                    e2:5e:98:4a:f9:3a:72:29:41:f8:98:28:63:dd:38:
                    19:77
                Exponent: 65537 (0x10001)
        X509v3 extensions:
            X509v3 Basic Constraints: 
                CA:FALSE
            X509v3 Subject Key Identifier: 
                3C:A8:61:22:E2:79:1E:FC:9F:80:EE:F6:EE:57:96:64:D4:11:43:C7
            X509v3 Authority Key Identifier: 
                keyid:72:5F:3F:9A:EF:B2:48:75:75:80:DC:2E:A7:6A:1C:92:43:AB:79:C7
                DirName:/CN=10.1.2.173@1463670202
                serial:A3:9D:7E:85:E5:45:8E:AD

            X509v3 Extended Key Usage: 
                TLS Web Client Authentication
            X509v3 Key Usage: 
                Digital Signature
    Signature Algorithm: sha256WithRSAEncryption
         12:11:84:19:c5:86:06:62:ae:97:bc:b6:83:89:36:9b:d6:0b:
         bc:e8:50:dc:3d:10:67:96:aa:36:7b:ee:eb:59:e2:7d:bd:e7:
         31:cf:a7:00:78:e8:48:2e:e2:7b:67:34:d6:fc:37:08:f5:65:
         ee:e1:57:78:5d:23:9a:03:6f:0f:52:09:84:83:74:eb:55:e0:
         7f:44:13:38:22:e4:5c:fb:91:66:7f:4d:59:be:c3:88:60:70:
         ac:f6:cb:2d:86:15:16:36:d4:7c:b3:54:ca:9a:4c:4b:a4:3c:
         d5:61:83:ff:34:cd:be:5b:2e:3c:1c:f0:c5:de:d9:1d:15:c7:
         30:90:4d:f6:a8:b3:36:4c:73:99:41:65:0a:73:78:e6:5a:11:
         21:e7:b3:0f:cd:2b:36:81:49:b7:be:3b:d3:61:6b:9a:f0:51:
         f2:a8:7d:b5:27:c0:3e:43:a8:be:c6:87:4e:0f:86:07:f0:0a:
         6b:00:15:15:c4:c2:69:75:d0:ee:0c:7b:0d:70:00:03:ca:d6:
         ea:9c:3e:30:58:aa:3f:e1:c1:0d:01:87:26:8b:8e:32:91:f4:
         27:87:0a:2f:c3:d5:39:e2:7d:10:02:59:2a:d3:cb:38:82:25:
         3b:0a:4a:4e:50:41:bb:6d:62:0b:25:5b:01:de:25:3b:60:9d:
         63:13:7c:73
-----BEGIN CERTIFICATE-----
MIIDTzCCAjegAwIBAgIBAjANBgkqhkiG9w0BAQsFADAgMR4wHAYDVQQDDBUxMC4x
LjIuMTczQDE0NjM2NzAyMDIwHhcNMTYwNTE5MTUwMzIzWhcNMjYwNTE3MTUwMzIz
WjASMRAwDgYDVQQDDAdrdWJlY2ZnMIIBIjANBgkqhkiG9w0BAQEFAAOCAQ8AMIIB
CgKCAQEAx88o2smXTn44wSZOEiWr8stuaHb9a8XZ5ciW1R7lXeNr3SK61OXExBEJ
4YsJ1Yuu3+SocFgi5MOSOrz1y6OCi9IXAGxvayxr+jWA3IJ9smSEQ7oiNhuKk+Bk
oghgaEYq6Xo+OKrtbkAlmCeK6oRzkJDeCJmhXyUWfLu0P6tJoyODL9Gfk+UgpJVs
lebEmE4BqGOWW53O0Rk0T3rOZEatjzhxJZ7q3aAX2FvB8llOfwL4i4OthnD77T2z
HTqNcVYQJDQ9/nzkc1y/fmqmWJV0/DMAGgKHXwegMbA4nYBmWMERwsn8/PQ/HB5/
xcQtqr7iXphK+TpyKUH4mChj3TgZdwIDAQABo4GhMIGeMAkGA1UdEwQCMAAwHQYD
VR0OBBYEFDyoYSLieR78n4Du9u5XlmTUEUPHMFAGA1UdIwRJMEeAFHJfP5rvskh1
dYDcLqdqHJJDq3nHoSSkIjAgMR4wHAYDVQQDDBUxMC4xLjIuMTczQDE0NjM2NzAy
MDKCCQCjnX6F5UWOrTATBgNVHSUEDDAKBggrBgEFBQcDAjALBgNVHQ8EBAMCB4Aw
DQYJKoZIhvcNAQELBQADggEBABIRhBnFhgZirpe8toOJNpvWC7zoUNw9EGeWqjZ7
7utZ4n295zHPpwB46Egu4ntnNNb8Nwj1Ze7hV3hdI5oDbw9SCYSDdOtV4H9EEzgi
5Fz7kWZ/TVm+w4hgcKz2yy2GFRY21HyzVMqaTEukPNVhg/80zb5bLjwc8MXe2R0V
xzCQTfaoszZMc5lBZQpzeOZaESHnsw/NKzaBSbe+O9Nha5rwUfKofbUnwD5DqL7G
h04PhgfwCmsAFRXEwml10O4Mew1wAAPK1uqcPjBYqj/hwQ0BhyaLjjKR9CeHCi/D
1TnifRACWSrTyziCJTsKSk5QQbttYgslWwHeJTtgnWMTfHM=
-----END CERTIFICATE-----
